; Function Attrs: mustprogress nounwind uwtable
define void @_ZN7glslang7TSymbolC2ERKS0_(ptr noundef nonnull writeonly align 8 captures(none) dereferenceable(33) initializes((0, 24), (32, 33)) %0, ptr noundef nonnull readonly align 8 captures(none) dereferenceable(33) %1) unnamed_addr #0 align 2 {
  store ptr getelementptr inbounds nuw inrange(-16, 176) (i8, ptr @_ZTVN7glslang7TSymbolE, i64 16), ptr %0, align 8
  %3 = getelementptr inbounds nuw i8, ptr %1, i64 8
  %4 = load ptr, ptr %3, align 8
  %5 = getelementptr inbounds nuw i8, ptr %4, i64 8
  %6 = load ptr, ptr %5, align 8
  %7 = tail call noundef ptr @_ZN7glslang14NewPoolTStringB5cxx11EPKc(ptr noundef %6)
  %8 = getelementptr inbounds nuw i8, ptr %0, i64 8
  store ptr %7, ptr %8, align 8
  %9 = getelementptr inbounds nuw i8, ptr %1, i64 16
  %10 = load i64, ptr %9, align 8
  %11 = getelementptr inbounds nuw i8, ptr %0, i64 16
  store i64 %10, ptr %11, align 8
  %12 = getelementptr inbounds nuw i8, ptr %0, i64 32
  store i8 1, ptr %12, align 8
  ret void
}